target datalayout = "e-m:e-p270:32:32-p271:32:32-p272:64:64-i64:64-i128:128-f80:128-n8:16:32:64-S128"
target triple = "x86_64-pc-linux-gnu"

%"class.icu_77::UnicodeString" = type { %"class.icu_77::Replaceable", %"union.icu_77::UnicodeString::StackBufferOrFields" }
%"class.icu_77::Replaceable" = type { %"class.icu_77::UObject" }
%"class.icu_77::UObject" = type { ptr }
%"union.icu_77::UnicodeString::StackBufferOrFields" = type { %struct.anon.4, [32 x i8] }
%struct.anon.4 = type { i16, i32, i32, ptr }
%"class.icu_77::SimpleFormatter" = type { [8 x i8], %"class.icu_77::UnicodeString" }
%"class.icu_77::(anonymous namespace)::ContextualHandler" = type { %"class.icu_77::(anonymous namespace)::PatternHandler", ptr, %"class.icu_77::SimpleFormatter", %"class.icu_77::SimpleFormatter" }
%"class.icu_77::(anonymous namespace)::PatternHandler" = type { %"class.icu_77::UObject", %"class.icu_77::SimpleFormatter", %"class.icu_77::SimpleFormatter" }

@_ZTVN6icu_777UObjectE = available_externally unnamed_addr constant { [5 x ptr] } { [5 x ptr] [ptr null, ptr @_ZTIN6icu_777UObjectE, ptr @_ZN6icu_777UObjectD1Ev, ptr @_ZN6icu_777UObjectD0Ev, ptr @_ZNK6icu_777UObject17getDynamicClassIDEv] }, align 8

; Function Attrs: inlinehint mustprogress nounwind uwtable
define linkonce_odr void @_ZN6icu_777UObjectC2Ev(ptr noundef nonnull align 8 dereferenceable(8) %0) unnamed_addr #2 comdat align 2 {
  %2 = alloca ptr, align 8
  store ptr %0, ptr %2, align 8, !tbaa !46
  %3 = load ptr, ptr %2, align 8
  store ptr getelementptr inbounds inrange(-16, 24) ({ [5 x ptr] }, ptr @_ZTVN6icu_777UObjectE, i32 0, i32 0, i32 2), ptr %3, align 8, !tbaa !27
  ret void
}

; Function Attrs: mustprogress uwtable
define internal void @_ZN6icu_7712_GLOBAL__N_114PatternHandlerC2ERKNS_15SimpleFormatterES4_(ptr noundef nonnull align 8 dereferenceable(152) %0, ptr noundef nonnull align 8 dereferenceable(72) %1, ptr noundef nonnull align 8 dereferenceable(72) %2) unnamed_addr #1 align 2 personality ptr @__gxx_personality_v0 {
  %4 = alloca ptr, align 8
  %5 = alloca ptr, align 8
  %6 = alloca ptr, align 8
  %7 = alloca ptr, align 8
  %8 = alloca i32, align 4
  store ptr %0, ptr %4, align 8, !tbaa !113
  store ptr %1, ptr %5, align 8, !tbaa !99
  store ptr %2, ptr %6, align 8, !tbaa !99
  %9 = load ptr, ptr %4, align 8
  call void @_ZN6icu_777UObjectC2Ev(ptr noundef nonnull align 8 dereferenceable(8) %9) #12
  store ptr getelementptr inbounds inrange(-16, 48) ({ [8 x ptr] }, ptr @_ZTVN6icu_7712_GLOBAL__N_114PatternHandlerE, i32 0, i32 0, i32 2), ptr %9, align 8, !tbaa !27
  %10 = getelementptr inbounds nuw %"class.icu_77::(anonymous namespace)::PatternHandler", ptr %9, i32 0, i32 1
  %11 = load ptr, ptr %5, align 8, !tbaa !99
  invoke void @_ZN6icu_7715SimpleFormatterC2ERKS0_(ptr noundef nonnull align 8 dereferenceable(72) %10, ptr noundef nonnull align 8 dereferenceable(72) %11)
          to label %12 unwind label %16

12:                                               ; preds = %3
  %13 = getelementptr inbounds nuw %"class.icu_77::(anonymous namespace)::PatternHandler", ptr %9, i32 0, i32 2
  %14 = load ptr, ptr %6, align 8, !tbaa !99
  invoke void @_ZN6icu_7715SimpleFormatterC2ERKS0_(ptr noundef nonnull align 8 dereferenceable(72) %13, ptr noundef nonnull align 8 dereferenceable(72) %14)
          to label %15 unwind label %20

15:                                               ; preds = %12
  ret void

16:                                               ; preds = %3
  %17 = landingpad { ptr, i32 }
          cleanup
  %18 = extractvalue { ptr, i32 } %17, 0
  store ptr %18, ptr %7, align 8
  %19 = extractvalue { ptr, i32 } %17, 1
  store i32 %19, ptr %8, align 4
  br label %24

20:                                               ; preds = %12
  %21 = landingpad { ptr, i32 }
          cleanup
  %22 = extractvalue { ptr, i32 } %21, 0
  store ptr %22, ptr %7, align 8
  %23 = extractvalue { ptr, i32 } %21, 1
  store i32 %23, ptr %8, align 4
  call void @_ZN6icu_7715SimpleFormatterD1Ev(ptr noundef nonnull align 8 dereferenceable(72) %10) #12
  br label %24

24:                                               ; preds = %20, %16
  call void @_ZN6icu_777UObjectD2Ev(ptr noundef nonnull align 8 dereferenceable(8) %9) #12
  br label %25

25:                                               ; preds = %24
  %26 = load ptr, ptr %7, align 8
  %27 = load i32, ptr %8, align 4
  %28 = insertvalue { ptr, i32 } poison, ptr %26, 0
  %29 = insertvalue { ptr, i32 } %28, i32 %27, 1
  resume { ptr, i32 } %29
}

; Function Attrs: mustprogress uwtable
define internal void @_ZN6icu_7712_GLOBAL__N_117ContextualHandlerC2EPFbRKNS_13UnicodeStringEERKNS_15SimpleFormatterES7_S9_S7_(ptr noundef nonnull align 8 dereferenceable(304) %0, ptr noundef %1, ptr noundef nonnull align 8 dereferenceable(72) %2, ptr noundef %3, ptr noundef nonnull align 8 dereferenceable(72) %4, ptr noundef %5) unnamed_addr #1 align 2 personality ptr @__gxx_personality_v0 {
  %7 = alloca ptr, align 8
  %8 = alloca ptr, align 8
  %9 = alloca ptr, align 8
  %10 = alloca ptr, align 8
  %11 = alloca ptr, align 8
  %12 = alloca ptr, align 8
  %13 = alloca ptr, align 8
  %14 = alloca i32, align 4
  store ptr %0, ptr %7, align 8, !tbaa !132
  store ptr %1, ptr %8, align 8, !tbaa !22
  store ptr %2, ptr %9, align 8, !tbaa !99
  store ptr %3, ptr %10, align 8, !tbaa !99
  store ptr %4, ptr %11, align 8, !tbaa !99
  store ptr %5, ptr %12, align 8, !tbaa !99
  %15 = load ptr, ptr %7, align 8
  call void @_ZN6icu_7712_GLOBAL__N_114PatternHandlerC2ERKNS_15SimpleFormatterES4_(ptr noundef nonnull align 8 dereferenceable(152) %15, ptr noundef nonnull align 8 dereferenceable(72) %3, ptr noundef nonnull align 8 dereferenceable(72) %5)
  store ptr getelementptr inbounds inrange(-16, 48) ({ [8 x ptr] }, ptr @_ZTVN6icu_7712_GLOBAL__N_117ContextualHandlerE, i32 0, i32 0, i32 2), ptr %15, align 8, !tbaa !27
  %16 = getelementptr inbounds nuw %"class.icu_77::(anonymous namespace)::ContextualHandler", ptr %15, i32 0, i32 1
  %17 = load ptr, ptr %8, align 8, !tbaa !22
  store ptr %17, ptr %16, align 8, !tbaa !134
  %18 = getelementptr inbounds nuw %"class.icu_77::(anonymous namespace)::ContextualHandler", ptr %15, i32 0, i32 2
  %19 = load ptr, ptr %9, align 8, !tbaa !99
  invoke void @_ZN6icu_7715SimpleFormatterC2ERKS0_(ptr noundef nonnull align 8 dereferenceable(72) %18, ptr noundef nonnull align 8 dereferenceable(72) %19)
          to label %20 unwind label %24

20:                                               ; preds = %6
  %21 = getelementptr inbounds nuw %"class.icu_77::(anonymous namespace)::ContextualHandler", ptr %15, i32 0, i32 3
  %22 = load ptr, ptr %11, align 8, !tbaa !99
  invoke void @_ZN6icu_7715SimpleFormatterC2ERKS0_(ptr noundef nonnull align 8 dereferenceable(72) %21, ptr noundef nonnull align 8 dereferenceable(72) %22)
          to label %23 unwind label %28

23:                                               ; preds = %20
  ret void

24:                                               ; preds = %6
  %25 = landingpad { ptr, i32 }
          cleanup
  %26 = extractvalue { ptr, i32 } %25, 0
  store ptr %26, ptr %13, align 8
  %27 = extractvalue { ptr, i32 } %25, 1
  store i32 %27, ptr %14, align 4
  br label %32

28:                                               ; preds = %20
  %29 = landingpad { ptr, i32 }
          cleanup
  %30 = extractvalue { ptr, i32 } %29, 0
  store ptr %30, ptr %13, align 8
  %31 = extractvalue { ptr, i32 } %29, 1
  store i32 %31, ptr %14, align 4
  call void @_ZN6icu_7715SimpleFormatterD1Ev(ptr noundef nonnull align 8 dereferenceable(72) %18) #12
  br label %32

32:                                               ; preds = %28, %24
  call void @_ZN6icu_7712_GLOBAL__N_114PatternHandlerD2Ev(ptr noundef nonnull align 8 dereferenceable(152) %15) #12
  br label %33

33:                                               ; preds = %32
  %34 = load ptr, ptr %13, align 8
  %35 = load i32, ptr %14, align 4
  %36 = insertvalue { ptr, i32 } poison, ptr %34, 0
  %37 = insertvalue { ptr, i32 } %36, i32 %35, 1
  resume { ptr, i32 } %37
}

; Function Attrs: mustprogress uwtable
define linkonce_odr void @_ZN6icu_7715SimpleFormatterC2ERKS0_(ptr noundef nonnull align 8 dereferenceable(72) %0, ptr noundef nonnull align 8 dereferenceable(72) %1) unnamed_addr #1 comdat align 2 {
  %3 = alloca ptr, align 8
  %4 = alloca ptr, align 8
  store ptr %0, ptr %3, align 8, !tbaa !99
  store ptr %1, ptr %4, align 8, !tbaa !99
  %5 = load ptr, ptr %3, align 8
  %6 = getelementptr inbounds nuw %"class.icu_77::SimpleFormatter", ptr %5, i32 0, i32 1
  %7 = load ptr, ptr %4, align 8, !tbaa !99
  %8 = getelementptr inbounds nuw %"class.icu_77::SimpleFormatter", ptr %7, i32 0, i32 1
  call void @_ZN6icu_7713UnicodeStringC1ERKS0_(ptr noundef nonnull align 8 dereferenceable(64) %6, ptr noundef nonnull align 8 dereferenceable(64) %8)
  ret void
}

; Function Attrs: mustprogress uwtable
define internal noundef ptr @_ZNK6icu_7712_GLOBAL__N_117ContextualHandler5cloneEv(ptr noundef nonnull align 8 dereferenceable(304) %0) unnamed_addr #1 align 2 personality ptr @__gxx_personality_v0 {
  %2 = alloca ptr, align 8
  %3 = alloca ptr, align 8
  %4 = alloca i1, align 1
  %5 = alloca %"class.icu_77::SimpleFormatter", align 8
  %6 = alloca ptr, align 8
  %7 = alloca i32, align 4
  %8 = alloca i1, align 1
  %9 = alloca %"class.icu_77::SimpleFormatter", align 8
  %10 = alloca i1, align 1
  store ptr %0, ptr %3, align 8, !tbaa !132
  %11 = load ptr, ptr %3, align 8
  %12 = call noundef ptr @_ZN6icu_777UMemorynwEm(i64 noundef 304) #12
  %13 = icmp eq ptr %12, null
  store i1 false, ptr %4, align 1
  store i1 false, ptr %8, align 1
  store i1 false, ptr %10, align 1
  br i1 %13, label %24, label %14

14:                                               ; preds = %1
  store i1 true, ptr %4, align 1
  %15 = getelementptr inbounds nuw %"class.icu_77::(anonymous namespace)::ContextualHandler", ptr %11, i32 0, i32 1
  %16 = load ptr, ptr %15, align 8, !tbaa !134
  %17 = getelementptr inbounds nuw %"class.icu_77::(anonymous namespace)::ContextualHandler", ptr %11, i32 0, i32 2
  %18 = getelementptr inbounds nuw %"class.icu_77::(anonymous namespace)::PatternHandler", ptr %11, i32 0, i32 1
  invoke void @_ZN6icu_7715SimpleFormatterC2ERKS0_(ptr noundef nonnull align 8 dereferenceable(72) %5, ptr noundef nonnull align 8 dereferenceable(72) %18)
          to label %19 unwind label %33

19:                                               ; preds = %14
  store i1 true, ptr %8, align 1
  %20 = getelementptr inbounds nuw %"class.icu_77::(anonymous namespace)::ContextualHandler", ptr %11, i32 0, i32 3
  %21 = getelementptr inbounds nuw %"class.icu_77::(anonymous namespace)::PatternHandler", ptr %11, i32 0, i32 2
  invoke void @_ZN6icu_7715SimpleFormatterC2ERKS0_(ptr noundef nonnull align 8 dereferenceable(72) %9, ptr noundef nonnull align 8 dereferenceable(72) %21)
          to label %22 unwind label %37

22:                                               ; preds = %19
  store i1 true, ptr %10, align 1
  invoke void @_ZN6icu_7712_GLOBAL__N_117ContextualHandlerC2EPFbRKNS_13UnicodeStringEERKNS_15SimpleFormatterES7_S9_S7_(ptr noundef nonnull align 8 dereferenceable(304) %12, ptr noundef %16, ptr noundef nonnull align 8 dereferenceable(72) %17, ptr noundef %5, ptr noundef nonnull align 8 dereferenceable(72) %20, ptr noundef %9)
          to label %23 unwind label %41

23:                                               ; preds = %22
  store i1 false, ptr %4, align 1
  br label %24

24:                                               ; preds = %23, %1
  %25 = phi ptr [ %12, %23 ], [ null, %1 ]
  store ptr %25, ptr %2, align 8
  %26 = load i1, ptr %10, align 1
  br i1 %26, label %27, label %28

27:                                               ; preds = %24
  call void @_ZN6icu_7715SimpleFormatterD1Ev(ptr noundef nonnull align 8 dereferenceable(72) %9) #12
  br label %28

28:                                               ; preds = %27, %24
  %29 = load i1, ptr %8, align 1
  br i1 %29, label %30, label %31

30:                                               ; preds = %28
  call void @_ZN6icu_7715SimpleFormatterD1Ev(ptr noundef nonnull align 8 dereferenceable(72) %5) #12
  br label %31

31:                                               ; preds = %30, %28
  %32 = load ptr, ptr %2, align 8
  ret ptr %32

33:                                               ; preds = %14
  %34 = landingpad { ptr, i32 }
          cleanup
  %35 = extractvalue { ptr, i32 } %34, 0
  store ptr %35, ptr %6, align 8
  %36 = extractvalue { ptr, i32 } %34, 1
  store i32 %36, ptr %7, align 4
  br label %52

37:                                               ; preds = %19
  %38 = landingpad { ptr, i32 }
          cleanup
  %39 = extractvalue { ptr, i32 } %38, 0
  store ptr %39, ptr %6, align 8
  %40 = extractvalue { ptr, i32 } %38, 1
  store i32 %40, ptr %7, align 4
  br label %48

41:                                               ; preds = %22
  %42 = landingpad { ptr, i32 }
          cleanup
  %43 = extractvalue { ptr, i32 } %42, 0
  store ptr %43, ptr %6, align 8
  %44 = extractvalue { ptr, i32 } %42, 1
  store i32 %44, ptr %7, align 4
  %45 = load i1, ptr %10, align 1
  br i1 %45, label %46, label %47

46:                                               ; preds = %41
  call void @_ZN6icu_7715SimpleFormatterD1Ev(ptr noundef nonnull align 8 dereferenceable(72) %9) #12
  br label %47

47:                                               ; preds = %46, %41
  br label %48

48:                                               ; preds = %47, %37
  %49 = load i1, ptr %8, align 1
  br i1 %49, label %50, label %51

50:                                               ; preds = %48
  call void @_ZN6icu_7715SimpleFormatterD1Ev(ptr noundef nonnull align 8 dereferenceable(72) %5) #12
  br label %51

51:                                               ; preds = %50, %48
  br label %52

52:                                               ; preds = %51, %33
  %53 = load i1, ptr %4, align 1
  br i1 %53, label %54, label %55

54:                                               ; preds = %52
  call void @_ZN6icu_777UMemorydlEPv(ptr noundef %12) #12
  br label %55

55:                                               ; preds = %54, %52
  br label %56

56:                                               ; preds = %55
  %57 = load ptr, ptr %6, align 8
  %58 = load i32, ptr %7, align 4
  %59 = insertvalue { ptr, i32 } poison, ptr %57, 0
  %60 = insertvalue { ptr, i32 } %59, i32 %58, 1
  resume { ptr, i32 } %60
}