; Function Attrs: mustprogress uwtable
define internal noundef ptr @_ZNK6icu_7712_GLOBAL__N_117ContextualHandler5cloneEv(ptr noundef nonnull align 8 dereferenceable(304) %0) unnamed_addr #1 align 2 personality ptr @__gxx_personality_v0 {
  %2 = alloca %"class.icu_77::SimpleFormatter", align 8
  %3 = alloca %"class.icu_77::SimpleFormatter", align 8
  %4 = tail call noundef ptr @_ZN6icu_777UMemorynwEm(i64 noundef 304) #19
  %.not = icmp eq ptr %4, null
  br i1 %.not, label %.critedge, label %5

5:                                                ; preds = %1
  %6 = getelementptr inbounds nuw i8, ptr %0, i64 152
  %7 = load ptr, ptr %6, align 8, !tbaa !82
  %8 = getelementptr inbounds nuw i8, ptr %2, i64 8
  %9 = getelementptr inbounds nuw i8, ptr %0, i64 16
  invoke void @_ZN6icu_7713UnicodeStringC1ERKS0_(ptr noundef nonnull align 8 dereferenceable(64) %8, ptr noundef nonnull align 8 dereferenceable(64) %9)
          to label %_ZN6icu_7715SimpleFormatterC2ERKS0_.exit unwind label %31

_ZN6icu_7715SimpleFormatterC2ERKS0_.exit:         ; preds = %5
  %10 = getelementptr inbounds nuw i8, ptr %3, i64 8
  %11 = getelementptr inbounds nuw i8, ptr %0, i64 88
  invoke void @_ZN6icu_7713UnicodeStringC1ERKS0_(ptr noundef nonnull align 8 dereferenceable(64) %10, ptr noundef nonnull align 8 dereferenceable(64) %11)
          to label %_ZN6icu_7715SimpleFormatterC2ERKS0_.exit15 unwind label %33

_ZN6icu_7715SimpleFormatterC2ERKS0_.exit15:       ; preds = %_ZN6icu_7715SimpleFormatterC2ERKS0_.exit
  store ptr getelementptr inbounds nuw inrange(-16, 48) (i8, ptr @_ZTVN6icu_7712_GLOBAL__N_114PatternHandlerE, i64 16), ptr %4, align 8, !tbaa !15
  %12 = getelementptr inbounds nuw i8, ptr %4, i64 8
  %13 = getelementptr inbounds nuw i8, ptr %4, i64 16
  invoke void @_ZN6icu_7713UnicodeStringC1ERKS0_(ptr noundef nonnull align 8 dereferenceable(64) %13, ptr noundef nonnull align 8 dereferenceable(64) %8)
          to label %_ZN6icu_7715SimpleFormatterC2ERKS0_.exit.i.i unwind label %15

_ZN6icu_7715SimpleFormatterC2ERKS0_.exit.i.i:     ; preds = %_ZN6icu_7715SimpleFormatterC2ERKS0_.exit15
  %14 = getelementptr inbounds nuw i8, ptr %4, i64 88
  invoke void @_ZN6icu_7713UnicodeStringC1ERKS0_(ptr noundef nonnull align 8 dereferenceable(64) %14, ptr noundef nonnull align 8 dereferenceable(64) %10)
          to label %_ZN6icu_7712_GLOBAL__N_114PatternHandlerC2ERKNS_15SimpleFormatterES4_.exit.i unwind label %17

15:                                               ; preds = %_ZN6icu_7715SimpleFormatterC2ERKS0_.exit15
  %16 = landingpad { ptr, i32 }
          cleanup
  br label %19

17:                                               ; preds = %_ZN6icu_7715SimpleFormatterC2ERKS0_.exit.i.i
  %18 = landingpad { ptr, i32 }
          cleanup
  call void @_ZN6icu_7715SimpleFormatterD1Ev(ptr noundef nonnull align 8 dereferenceable(72) %12) #19
  br label %19

19:                                               ; preds = %17, %15
  %.pn.i.i = phi { ptr, i32 } [ %18, %17 ], [ %16, %15 ]
  call void @_ZN6icu_777UObjectD2Ev(ptr noundef nonnull align 8 dereferenceable(304) %4) #19
  br label %.body

_ZN6icu_7712_GLOBAL__N_114PatternHandlerC2ERKNS_15SimpleFormatterES4_.exit.i: ; preds = %_ZN6icu_7715SimpleFormatterC2ERKS0_.exit.i.i
  store ptr getelementptr inbounds nuw inrange(-16, 48) (i8, ptr @_ZTVN6icu_7712_GLOBAL__N_117ContextualHandlerE, i64 16), ptr %4, align 8, !tbaa !15
  %20 = getelementptr inbounds nuw i8, ptr %4, i64 152
  store ptr %7, ptr %20, align 8, !tbaa !82
  %21 = getelementptr inbounds nuw i8, ptr %4, i64 160
  %22 = getelementptr inbounds nuw i8, ptr %4, i64 168
  %23 = getelementptr inbounds nuw i8, ptr %0, i64 168
  invoke void @_ZN6icu_7713UnicodeStringC1ERKS0_(ptr noundef nonnull align 8 dereferenceable(64) %22, ptr noundef nonnull align 8 dereferenceable(64) %23)
          to label %_ZN6icu_7715SimpleFormatterC2ERKS0_.exit.i unwind label %26

_ZN6icu_7715SimpleFormatterC2ERKS0_.exit.i:       ; preds = %_ZN6icu_7712_GLOBAL__N_114PatternHandlerC2ERKNS_15SimpleFormatterES4_.exit.i
  %24 = getelementptr inbounds nuw i8, ptr %4, i64 240
  %25 = getelementptr inbounds nuw i8, ptr %0, i64 240
  invoke void @_ZN6icu_7713UnicodeStringC1ERKS0_(ptr noundef nonnull align 8 dereferenceable(64) %24, ptr noundef nonnull align 8 dereferenceable(64) %25)
          to label %_ZN6icu_7712_GLOBAL__N_117ContextualHandlerC2EPFbRKNS_13UnicodeStringEERKNS_15SimpleFormatterES7_S9_S7_.exit unwind label %28

26:                                               ; preds = %_ZN6icu_7712_GLOBAL__N_114PatternHandlerC2ERKNS_15SimpleFormatterES4_.exit.i
  %27 = landingpad { ptr, i32 }
          cleanup
  br label %30

28:                                               ; preds = %_ZN6icu_7715SimpleFormatterC2ERKS0_.exit.i
  %29 = landingpad { ptr, i32 }
          cleanup
  call void @_ZN6icu_7715SimpleFormatterD1Ev(ptr noundef nonnull align 8 dereferenceable(72) %21) #19
  br label %30

30:                                               ; preds = %28, %26
  %.pn.i = phi { ptr, i32 } [ %29, %28 ], [ %27, %26 ]
  call void @_ZN6icu_7712_GLOBAL__N_114PatternHandlerD2Ev(ptr noundef nonnull align 8 dereferenceable(304) %4) #19
  br label %.body

_ZN6icu_7712_GLOBAL__N_117ContextualHandlerC2EPFbRKNS_13UnicodeStringEERKNS_15SimpleFormatterES7_S9_S7_.exit: ; preds = %_ZN6icu_7715SimpleFormatterC2ERKS0_.exit.i
  call void @_ZN6icu_7715SimpleFormatterD1Ev(ptr noundef nonnull align 8 dereferenceable(72) %3) #19
  call void @_ZN6icu_7715SimpleFormatterD1Ev(ptr noundef nonnull align 8 dereferenceable(72) %2) #19
  br label %.critedge

.critedge:                                        ; preds = %1, %_ZN6icu_7712_GLOBAL__N_117ContextualHandlerC2EPFbRKNS_13UnicodeStringEERKNS_15SimpleFormatterES7_S9_S7_.exit
  ret ptr %4

31:                                               ; preds = %5
  %32 = landingpad { ptr, i32 }
          cleanup
  br label %36

33:                                               ; preds = %_ZN6icu_7715SimpleFormatterC2ERKS0_.exit
  %34 = landingpad { ptr, i32 }
          cleanup
  br label %35

.body:                                            ; preds = %19, %30
  %eh.lpad-body = phi { ptr, i32 } [ %.pn.i.i, %19 ], [ %.pn.i, %30 ]
  call void @_ZN6icu_7715SimpleFormatterD1Ev(ptr noundef nonnull align 8 dereferenceable(72) %3) #19
  br label %35

35:                                               ; preds = %33, %.body
  %.pn = phi { ptr, i32 } [ %eh.lpad-body, %.body ], [ %34, %33 ]
  call void @_ZN6icu_7715SimpleFormatterD1Ev(ptr noundef nonnull align 8 dereferenceable(72) %2) #19
  br label %36

36:                                               ; preds = %31, %35
  %.pn.pn = phi { ptr, i32 } [ %.pn, %35 ], [ %32, %31 ]
  call void @_ZN6icu_777UMemorydlEPv(ptr noundef nonnull %4) #19
  resume { ptr, i32 } %.pn.pn
}